target datalayout = "e-m:e-p270:32:32-p271:32:32-p272:64:64-i64:64-i128:128-f80:128-n8:16:32:64-S128"
target triple = "x86_64-pc-linux-gnu"

; Function Attrs: nounwind uwtable
define dso_local zeroext i1 @SplitGUCList(ptr noundef %0, i8 noundef signext %1, ptr noundef %2) #0 {
  %4 = alloca i1, align 1
  %5 = alloca ptr, align 8
  %6 = alloca i8, align 1
  %7 = alloca ptr, align 8
  %8 = alloca ptr, align 8
  %9 = alloca i8, align 1
  %10 = alloca ptr, align 8
  %11 = alloca i32, align 4
  %12 = alloca ptr, align 8
  %13 = alloca ptr, align 8
  store ptr %0, ptr %5, align 8
  store i8 %1, ptr %6, align 1
  store ptr %2, ptr %7, align 8
  call void @llvm.lifetime.start.p0(i64 8, ptr %8) #8
  %14 = load ptr, ptr %5, align 8
  store ptr %14, ptr %8, align 8
  call void @llvm.lifetime.start.p0(i64 1, ptr %9) #8
  store i8 0, ptr %9, align 1
  call void @llvm.lifetime.start.p0(i64 8, ptr %10) #8
  %15 = load ptr, ptr %5, align 8
  %16 = call i64 @strlen(ptr noundef %15) #9
  %17 = udiv i64 %16, 2
  %18 = add i64 %17, 2
  %19 = mul i64 %18, 8
  %20 = call ptr @pg_malloc(i64 noundef %19)
  store ptr %20, ptr %10, align 8
  %21 = load ptr, ptr %7, align 8
  store ptr %20, ptr %21, align 8
  %22 = load ptr, ptr %10, align 8
  store ptr null, ptr %22, align 8
  br label %23

23:                                               ; preds = %35, %3
  %24 = call ptr @__ctype_b_loc() #11
  %25 = load ptr, ptr %24, align 8
  %26 = load ptr, ptr %8, align 8
  %27 = load i8, ptr %26, align 1
  %28 = zext i8 %27 to i32
  %29 = sext i32 %28 to i64
  %30 = getelementptr inbounds i16, ptr %25, i64 %29
  %31 = load i16, ptr %30, align 2
  %32 = zext i16 %31 to i32
  %33 = and i32 %32, 8192
  %34 = icmp ne i32 %33, 0
  br i1 %34, label %35, label %38

35:                                               ; preds = %23
  %36 = load ptr, ptr %8, align 8
  %37 = getelementptr inbounds nuw i8, ptr %36, i32 1
  store ptr %37, ptr %8, align 8
  br label %23, !llvm.loop !16

38:                                               ; preds = %23
  %39 = load ptr, ptr %8, align 8
  %40 = load i8, ptr %39, align 1
  %41 = sext i8 %40 to i32
  %42 = icmp eq i32 %41, 0
  br i1 %42, label %43, label %44

43:                                               ; preds = %38
  store i1 true, ptr %4, align 1
  store i32 1, ptr %11, align 4
  br label %180

44:                                               ; preds = %38
  br label %45

45:                                               ; preds = %174, %44
  call void @llvm.lifetime.start.p0(i64 8, ptr %12) #8
  call void @llvm.lifetime.start.p0(i64 8, ptr %13) #8
  %46 = load ptr, ptr %8, align 8
  %47 = load i8, ptr %46, align 1
  %48 = sext i8 %47 to i32
  %49 = icmp eq i32 %48, 34
  br i1 %49, label %50, label %77

50:                                               ; preds = %45
  %51 = load ptr, ptr %8, align 8
  %52 = getelementptr inbounds i8, ptr %51, i64 1
  store ptr %52, ptr %12, align 8
  br label %53

53:                                               ; preds = %67, %50
  %54 = load ptr, ptr %8, align 8
  %55 = getelementptr inbounds i8, ptr %54, i64 1
  %56 = call ptr @strchr(ptr noundef %55, i32 noundef 34) #9
  store ptr %56, ptr %13, align 8
  %57 = load ptr, ptr %13, align 8
  %58 = icmp eq ptr %57, null
  br i1 %58, label %59, label %60

59:                                               ; preds = %53
  store i1 false, ptr %4, align 1
  store i32 1, ptr %11, align 4
  br label %171

60:                                               ; preds = %53
  %61 = load ptr, ptr %13, align 8
  %62 = getelementptr inbounds i8, ptr %61, i64 1
  %63 = load i8, ptr %62, align 1
  %64 = sext i8 %63 to i32
  %65 = icmp ne i32 %64, 34
  br i1 %65, label %66, label %67

66:                                               ; preds = %60
  br label %74

67:                                               ; preds = %60
  %68 = load ptr, ptr %13, align 8
  %69 = load ptr, ptr %13, align 8
  %70 = getelementptr inbounds i8, ptr %69, i64 1
  %71 = load ptr, ptr %13, align 8
  %72 = call i64 @strlen(ptr noundef %71) #9
  call void @llvm.memmove.p0.p0.i64(ptr align 1 %68, ptr align 1 %70, i64 %72, i1 false)
  %73 = load ptr, ptr %13, align 8
  store ptr %73, ptr %8, align 8
  br label %53

74:                                               ; preds = %66
  %75 = load ptr, ptr %13, align 8
  %76 = getelementptr inbounds i8, ptr %75, i64 1
  store ptr %76, ptr %8, align 8
  br label %116

77:                                               ; preds = %45
  %78 = load ptr, ptr %8, align 8
  store ptr %78, ptr %12, align 8
  br label %79

79:                                               ; preds = %106, %77
  %80 = load ptr, ptr %8, align 8
  %81 = load i8, ptr %80, align 1
  %82 = sext i8 %81 to i32
  %83 = icmp ne i32 %82, 0
  br i1 %83, label %84, label %104

84:                                               ; preds = %79
  %85 = load ptr, ptr %8, align 8
  %86 = load i8, ptr %85, align 1
  %87 = sext i8 %86 to i32
  %88 = load i8, ptr %6, align 1
  %89 = sext i8 %88 to i32
  %90 = icmp ne i32 %87, %89
  br i1 %90, label %91, label %104

91:                                               ; preds = %84
  %92 = call ptr @__ctype_b_loc() #11
  %93 = load ptr, ptr %92, align 8
  %94 = load ptr, ptr %8, align 8
  %95 = load i8, ptr %94, align 1
  %96 = zext i8 %95 to i32
  %97 = sext i32 %96 to i64
  %98 = getelementptr inbounds i16, ptr %93, i64 %97
  %99 = load i16, ptr %98, align 2
  %100 = zext i16 %99 to i32
  %101 = and i32 %100, 8192
  %102 = icmp ne i32 %101, 0
  %103 = xor i1 %102, true
  br label %104

104:                                              ; preds = %91, %84, %79
  %105 = phi i1 [ false, %84 ], [ false, %79 ], [ %103, %91 ]
  br i1 %105, label %106, label %109

106:                                              ; preds = %104
  %107 = load ptr, ptr %8, align 8
  %108 = getelementptr inbounds nuw i8, ptr %107, i32 1
  store ptr %108, ptr %8, align 8
  br label %79, !llvm.loop !17

109:                                              ; preds = %104
  %110 = load ptr, ptr %8, align 8
  store ptr %110, ptr %13, align 8
  %111 = load ptr, ptr %12, align 8
  %112 = load ptr, ptr %8, align 8
  %113 = icmp eq ptr %111, %112
  br i1 %113, label %114, label %115

114:                                              ; preds = %109
  store i1 false, ptr %4, align 1
  store i32 1, ptr %11, align 4
  br label %171

115:                                              ; preds = %109
  br label %116

116:                                              ; preds = %115, %74
  br label %117

117:                                              ; preds = %129, %116
  %118 = call ptr @__ctype_b_loc() #11
  %119 = load ptr, ptr %118, align 8
  %120 = load ptr, ptr %8, align 8
  %121 = load i8, ptr %120, align 1
  %122 = zext i8 %121 to i32
  %123 = sext i32 %122 to i64
  %124 = getelementptr inbounds i16, ptr %119, i64 %123
  %125 = load i16, ptr %124, align 2
  %126 = zext i16 %125 to i32
  %127 = and i32 %126, 8192
  %128 = icmp ne i32 %127, 0
  br i1 %128, label %129, label %132

129:                                              ; preds = %117
  %130 = load ptr, ptr %8, align 8
  %131 = getelementptr inbounds nuw i8, ptr %130, i32 1
  store ptr %131, ptr %8, align 8
  br label %117, !llvm.loop !18

132:                                              ; preds = %117
  %133 = load ptr, ptr %8, align 8
  %134 = load i8, ptr %133, align 1
  %135 = sext i8 %134 to i32
  %136 = load i8, ptr %6, align 1
  %137 = sext i8 %136 to i32
  %138 = icmp eq i32 %135, %137
  br i1 %138, label %139, label %158

139:                                              ; preds = %132
  %140 = load ptr, ptr %8, align 8
  %141 = getelementptr inbounds nuw i8, ptr %140, i32 1
  store ptr %141, ptr %8, align 8
  br label %142

142:                                              ; preds = %154, %139
  %143 = call ptr @__ctype_b_loc() #11
  %144 = load ptr, ptr %143, align 8
  %145 = load ptr, ptr %8, align 8
  %146 = load i8, ptr %145, align 1
  %147 = zext i8 %146 to i32
  %148 = sext i32 %147 to i64
  %149 = getelementptr inbounds i16, ptr %144, i64 %148
  %150 = load i16, ptr %149, align 2
  %151 = zext i16 %150 to i32
  %152 = and i32 %151, 8192
  %153 = icmp ne i32 %152, 0
  br i1 %153, label %154, label %157

154:                                              ; preds = %142
  %155 = load ptr, ptr %8, align 8
  %156 = getelementptr inbounds nuw i8, ptr %155, i32 1
  store ptr %156, ptr %8, align 8
  br label %142, !llvm.loop !19

157:                                              ; preds = %142
  br label %166

158:                                              ; preds = %132
  %159 = load ptr, ptr %8, align 8
  %160 = load i8, ptr %159, align 1
  %161 = sext i8 %160 to i32
  %162 = icmp eq i32 %161, 0
  br i1 %162, label %163, label %164

163:                                              ; preds = %158
  store i8 1, ptr %9, align 1
  br label %165

164:                                              ; preds = %158
  store i1 false, ptr %4, align 1
  store i32 1, ptr %11, align 4
  br label %171

165:                                              ; preds = %163
  br label %166

166:                                              ; preds = %165, %157
  %167 = load ptr, ptr %13, align 8
  store i8 0, ptr %167, align 1
  %168 = load ptr, ptr %12, align 8
  %169 = load ptr, ptr %10, align 8
  %170 = getelementptr inbounds nuw ptr, ptr %169, i32 1
  store ptr %170, ptr %10, align 8
  store ptr %168, ptr %169, align 8
  store i32 0, ptr %11, align 4
  br label %171

171:                                              ; preds = %166, %164, %114, %59
  call void @llvm.lifetime.end.p0(i64 8, ptr %13) #8
  call void @llvm.lifetime.end.p0(i64 8, ptr %12) #8
  %172 = load i32, ptr %11, align 4
  switch i32 %172, label %180 [
    i32 0, label %173
  ]

173:                                              ; preds = %171
  br label %174

174:                                              ; preds = %173
  %175 = load i8, ptr %9, align 1, !range !6, !noundef !7
  %176 = trunc i8 %175 to i1
  %177 = xor i1 %176, true
  br i1 %177, label %45, label %178, !llvm.loop !20

178:                                              ; preds = %174
  %179 = load ptr, ptr %10, align 8
  store ptr null, ptr %179, align 8
  store i1 true, ptr %4, align 1
  store i32 1, ptr %11, align 4
  br label %180

180:                                              ; preds = %178, %171, %43
  call void @llvm.lifetime.end.p0(i64 8, ptr %10) #8
  call void @llvm.lifetime.end.p0(i64 1, ptr %9) #8
  call void @llvm.lifetime.end.p0(i64 8, ptr %8) #8
  %181 = load i1, ptr %4, align 1
  ret i1 %181
}