; Function Attrs: nounwind uwtable
define dso_local noundef zeroext i1 @SplitGUCList(ptr noundef %0, i8 noundef signext %1, ptr noundef writeonly captures(none) initializes((0, 8)) %2) local_unnamed_addr #0 {
  %4 = tail call i64 @strlen(ptr noundef nonnull dereferenceable(1) %0) #9
  %5 = shl i64 %4, 2
  %6 = and i64 %5, -8
  %7 = add i64 %6, 16
  %8 = tail call ptr @pg_malloc(i64 noundef %7) #8
  store ptr %8, ptr %2, align 8
  store ptr null, ptr %8, align 8
  %9 = tail call ptr @__ctype_b_loc() #11
  %10 = load ptr, ptr %9, align 8
  br label %11

11:                                               ; preds = %11, %3
  %.045 = phi ptr [ %0, %3 ], [ %17, %11 ]
  %12 = load i8, ptr %.045, align 1
  %13 = zext i8 %12 to i64
  %14 = getelementptr inbounds nuw i16, ptr %10, i64 %13
  %15 = load i16, ptr %14, align 2
  %16 = and i16 %15, 8192
  %.not = icmp eq i16 %16, 0
  %17 = getelementptr inbounds nuw i8, ptr %.045, i64 1
  br i1 %.not, label %18, label %11, !llvm.loop !16

18:                                               ; preds = %11
  %19 = icmp eq i8 %12, 0
  br i1 %19, label %.thread, label %.preheader68

.preheader68:                                     ; preds = %18, %62
  %20 = phi i8 [ %.pre, %62 ], [ %12, %18 ]
  %.146 = phi ptr [ %.7, %62 ], [ %.045, %18 ]
  %.042 = phi ptr [ %63, %62 ], [ %8, %18 ]
  %21 = icmp eq i8 %20, 34
  br i1 %21, label %23, label %.preheader67

.preheader67:                                     ; preds = %.preheader68
  %.not5477 = icmp eq i8 %20, 0
  %.not5578 = icmp eq i8 %20, %1
  %or.cond79 = or i1 %.not5477, %.not5578
  br i1 %or.cond79, label %.critedge, label %.lr.ph

.lr.ph:                                           ; preds = %.preheader67
  %22 = load ptr, ptr %9, align 8
  br label %34

23:                                               ; preds = %.preheader68
  %24 = getelementptr inbounds nuw i8, ptr %.146, i64 1
  %25 = tail call ptr @strchr(ptr noundef nonnull dereferenceable(1) %24, i32 noundef 34) #9
  %26 = icmp eq ptr %25, null
  br i1 %26, label %.thread, label %.lr.ph83

.lr.ph83:                                         ; preds = %23, %30
  %27 = phi ptr [ %32, %30 ], [ %25, %23 ]
  %28 = getelementptr inbounds nuw i8, ptr %27, i64 1
  %29 = load i8, ptr %28, align 1
  %.not57 = icmp eq i8 %29, 34
  br i1 %.not57, label %30, label %.loopexit

30:                                               ; preds = %.lr.ph83
  %31 = tail call i64 @strlen(ptr noundef nonnull dereferenceable(1) %27) #9
  tail call void @llvm.memmove.p0.p0.i64(ptr nonnull align 1 %27, ptr nonnull align 1 %28, i64 %31, i1 false)
  %32 = tail call ptr @strchr(ptr noundef nonnull dereferenceable(1) %28, i32 noundef 34) #9
  %33 = icmp eq ptr %32, null
  br i1 %33, label %.thread, label %.lr.ph83

34:                                               ; preds = %.lr.ph, %40
  %35 = phi i8 [ %20, %.lr.ph ], [ %42, %40 ]
  %.580 = phi ptr [ %.146, %.lr.ph ], [ %41, %40 ]
  %36 = zext i8 %35 to i64
  %37 = getelementptr inbounds nuw i16, ptr %22, i64 %36
  %38 = load i16, ptr %37, align 2
  %39 = and i16 %38, 8192
  %.not56 = icmp eq i16 %39, 0
  br i1 %.not56, label %40, label %.critedge

40:                                               ; preds = %34
  %41 = getelementptr inbounds nuw i8, ptr %.580, i64 1
  %42 = load i8, ptr %41, align 1
  %.not54 = icmp eq i8 %42, 0
  %.not55 = icmp eq i8 %42, %1
  %or.cond = or i1 %.not54, %.not55
  br i1 %or.cond, label %.critedge, label %34, !llvm.loop !17

.critedge:                                        ; preds = %34, %40, %.preheader67
  %.5.lcssa = phi ptr [ %.146, %.preheader67 ], [ %41, %40 ], [ %.580, %34 ]
  %43 = icmp eq ptr %.146, %.5.lcssa
  br i1 %43, label %.thread, label %.loopexit

.loopexit:                                        ; preds = %.lr.ph83, %.critedge
  %.4 = phi ptr [ %.5.lcssa, %.critedge ], [ %28, %.lr.ph83 ]
  %.040 = phi ptr [ %.146, %.critedge ], [ %24, %.lr.ph83 ]
  %.0 = phi ptr [ %.5.lcssa, %.critedge ], [ %27, %.lr.ph83 ]
  %44 = load ptr, ptr %9, align 8
  br label %45

45:                                               ; preds = %45, %.loopexit
  %.6 = phi ptr [ %.4, %.loopexit ], [ %51, %45 ]
  %46 = load i8, ptr %.6, align 1
  %47 = zext i8 %46 to i64
  %48 = getelementptr inbounds nuw i16, ptr %44, i64 %47
  %49 = load i16, ptr %48, align 2
  %50 = and i16 %49, 8192
  %.not58 = icmp eq i16 %50, 0
  %51 = getelementptr inbounds nuw i8, ptr %.6, i64 1
  br i1 %.not58, label %52, label %45, !llvm.loop !18

52:                                               ; preds = %45
  %53 = icmp eq i8 %46, %1
  br i1 %53, label %.preheader, label %59

.preheader:                                       ; preds = %52, %.preheader
  %.6.pn = phi ptr [ %.7, %.preheader ], [ %.6, %52 ]
  %.7 = getelementptr inbounds nuw i8, ptr %.6.pn, i64 1
  %54 = load i8, ptr %.7, align 1
  %55 = zext i8 %54 to i64
  %56 = getelementptr inbounds nuw i16, ptr %44, i64 %55
  %57 = load i16, ptr %56, align 2
  %58 = and i16 %57, 8192
  %.not59 = icmp eq i16 %58, 0
  br i1 %.not59, label %62, label %.preheader, !llvm.loop !19

59:                                               ; preds = %52
  %60 = icmp eq i8 %46, 0
  br i1 %60, label %.thread64, label %.thread

.thread64:                                        ; preds = %59
  store i8 0, ptr %.0, align 1
  %61 = getelementptr inbounds nuw i8, ptr %.042, i64 8
  store ptr %.040, ptr %.042, align 8
  store ptr null, ptr %61, align 8
  br label %.thread

62:                                               ; preds = %.preheader
  store i8 0, ptr %.0, align 1
  %63 = getelementptr inbounds nuw i8, ptr %.042, i64 8
  store ptr %.040, ptr %.042, align 8
  %.pre = load i8, ptr %.7, align 1
  br label %.preheader68, !llvm.loop !20

.thread:                                          ; preds = %.critedge, %23, %30, %59, %18, %.thread64
  %.048 = phi i1 [ true, %.thread64 ], [ true, %18 ], [ false, %59 ], [ false, %30 ], [ false, %23 ], [ false, %.critedge ]
  ret i1 %.048
}